; ModuleID = 'source-C-CXX/57/730.c'
source_filename = "source-C-CXX/57/730.c"
target datalayout = "e-m:e-p270:32:32-p271:32:32-p272:64:64-i64:64-f80:128-n8:16:32:64-S128"
target triple = "x86_64-pc-linux-gnu"

@.str = private unnamed_addr constant [4 x i8] c"%d\0A\00", align 1

; Function Attrs: nounwind sspstrong uwtable
define dso_local void @main() local_unnamed_addr #0 {
  %1 = alloca [85 x i8], align 16
  %2 = alloca i32, align 4
  %3 = getelementptr inbounds [85 x i8], [85 x i8]* %1, i64 0, i64 0
  call void @llvm.lifetime.start.p0i8(i64 85, i8* nonnull %3) #4
  %4 = bitcast i32* %2 to i8*
  call void @llvm.lifetime.start.p0i8(i64 4, i8* nonnull %4) #4
  %5 = call i32 (i8*, ...) @__isoc99_scanf(i8* getelementptr inbounds ([4 x i8], [4 x i8]* @.str, i64 0, i64 0), i32* nonnull %2)
  %6 = getelementptr inbounds [85 x i8], [85 x i8]* %1, i64 0, i64 1
  %7 = load i32, i32* %2, align 4, !tbaa !5
  %8 = icmp sgt i32 %7, 0
  br i1 %8, label %9, label %47

9:                                                ; preds = %0, %41
  %10 = phi i32 [ %44, %41 ], [ 0, %0 ]
  %11 = call i32 (i8*, ...) bitcast (i32 (...)* @gets to i32 (i8*, ...)*)(i8* nonnull %3) #4
  %12 = load i8, i8* %3, align 16, !tbaa !9
  %13 = add i8 %12, -97
  %14 = icmp ult i8 %13, 26
  br i1 %14, label %20, label %15

15:                                               ; preds = %9
  %16 = add i8 %12, -65
  %17 = icmp ult i8 %16, 26
  %18 = icmp eq i8 %12, 95
  %19 = or i1 %18, %17
  br i1 %19, label %20, label %41

20:                                               ; preds = %15, %9
  %21 = load i8, i8* %6, align 1, !tbaa !9
  %22 = icmp eq i8 %21, 0
  br i1 %22, label %41, label %23

23:                                               ; preds = %20, %36
  %24 = phi i64 [ %37, %36 ], [ 1, %20 ]
  %25 = phi i8 [ %39, %36 ], [ %21, %20 ]
  %26 = add i8 %25, -97
  %27 = icmp ult i8 %26, 26
  br i1 %27, label %36, label %28

28:                                               ; preds = %23
  %29 = add i8 %25, -65
  %30 = icmp ult i8 %29, 26
  %31 = icmp eq i8 %25, 95
  %32 = or i1 %31, %30
  %33 = add i8 %25, -48
  %34 = icmp ult i8 %33, 10
  %35 = or i1 %34, %32
  br i1 %35, label %36, label %41

36:                                               ; preds = %28, %23
  %37 = add nuw i64 %24, 1
  %38 = getelementptr inbounds [85 x i8], [85 x i8]* %1, i64 0, i64 %37
  %39 = load i8, i8* %38, align 1, !tbaa !9
  %40 = icmp eq i8 %39, 0
  br i1 %40, label %41, label %23, !llvm.loop !10

41:                                               ; preds = %36, %28, %20, %15
  %42 = phi i32 [ 0, %15 ], [ 1, %20 ], [ 1, %36 ], [ 0, %28 ]
  %43 = call i32 (i8*, ...) @printf(i8* nonnull dereferenceable(1) getelementptr inbounds ([4 x i8], [4 x i8]* @.str, i64 0, i64 0), i32 %42)
  %44 = add nuw nsw i32 %10, 1
  %45 = load i32, i32* %2, align 4, !tbaa !5
  %46 = icmp slt i32 %44, %45
  br i1 %46, label %9, label %47, !llvm.loop !12

47:                                               ; preds = %41, %0
  call void @llvm.lifetime.end.p0i8(i64 4, i8* nonnull %4) #4
  call void @llvm.lifetime.end.p0i8(i64 85, i8* nonnull %3) #4
  ret void
}

; Function Attrs: argmemonly mustprogress nofree nosync nounwind willreturn
declare void @llvm.lifetime.start.p0i8(i64 immarg, i8* nocapture) #1

; Function Attrs: nofree nounwind
declare noundef i32 @__isoc99_scanf(i8* nocapture noundef readonly, ...) local_unnamed_addr #2

declare i32 @gets(...) local_unnamed_addr #3

; Function Attrs: nofree nounwind
declare noundef i32 @printf(i8* nocapture noundef readonly, ...) local_unnamed_addr #2

; Function Attrs: argmemonly mustprogress nofree nosync nounwind willreturn
declare void @llvm.lifetime.end.p0i8(i64 immarg, i8* nocapture) #1


!llvm.module.flags = !{!0, !1, !2, !3}
!llvm.ident = !{!4}

!0 = !{i32 1, !"wchar_size", i32 4}
!1 = !{i32 7, !"PIC Level", i32 2}
!2 = !{i32 7, !"PIE Level", i32 2}
!3 = !{i32 7, !"uwtable", i32 1}
!4 = !{!"clang version 13.0.0"}
!5 = !{!6, !6, i64 0}
!6 = !{!"int", !7, i64 0}
!7 = !{!"omnipotent char", !8, i64 0}
!8 = !{!"Simple C/C++ TBAA"}
!9 = !{!7, !7, i64 0}
!10 = distinct !{!10, !11}
!11 = !{!"llvm.loop.mustprogress"}
!12 = distinct !{!12, !11}
